target datalayout = "e-m:e-p270:32:32-p271:32:32-p272:64:64-i64:64-i128:128-f80:128-n8:16:32:64-S128"
target triple = "x86_64-pc-linux-gnu"

%"class.llvm::StringRef" = type { ptr, i64 }
%"class.llvm::DiagnosticInfo.base" = type <{ ptr, i32, i8 }>
%"class.llvm::DiagnosticLocation" = type { ptr, i32, i32 }
%"class.llvm::DiagnosticInfoWithLocationBase" = type { %"class.llvm::DiagnosticInfo.base", ptr, %"class.llvm::DiagnosticLocation" }
%"class.std::__cxx11::basic_string" = type { %"struct.std::__cxx11::basic_string<char>::_Alloc_hider", i64, %union.anon.12 }
%"struct.std::__cxx11::basic_string<char>::_Alloc_hider" = type { ptr }
%union.anon.12 = type { i64, [8 x i8] }
%"class.llvm::SmallVectorBase.75" = type { ptr, i32, i32 }
%"class.llvm::raw_string_ostream" = type { %"class.llvm::raw_ostream", ptr }
%"class.llvm::raw_ostream" = type { ptr, i32, ptr, ptr, ptr, i8, i32 }
%"struct.llvm::DiagnosticInfoOptimizationBase::Argument" = type { %"class.std::__cxx11::basic_string", %"class.std::__cxx11::basic_string", %"class.llvm::DiagnosticLocation" }
%"class.llvm::DiagnosticInfoOptimizationBase" = type { %"class.llvm::DiagnosticInfoWithLocationBase", ptr, %"class.llvm::StringRef", %"class.std::optional.103", %"class.llvm::SmallVector.111", i8, i32 }
%"class.std::optional.103" = type { %"struct.std::_Optional_base.104" }
%"struct.std::_Optional_base.104" = type { %"struct.std::_Optional_payload.106" }
%"struct.std::_Optional_payload.106" = type { %"struct.std::_Optional_payload_base.base.108", [7 x i8] }
%"struct.std::_Optional_payload_base.base.108" = type <{ %"union.std::_Optional_payload_base<unsigned long>::_Storage", i8 }>
%"union.std::_Optional_payload_base<unsigned long>::_Storage" = type { i64 }
%"class.llvm::SmallVector.111" = type { %"class.llvm::SmallVectorImpl.112", %"struct.llvm::SmallVectorStorage.115" }
%"class.llvm::SmallVectorImpl.112" = type { %"class.llvm::SmallVectorTemplateBase.113" }
%"class.llvm::SmallVectorTemplateBase.113" = type { %"class.llvm::SmallVectorTemplateCommon.114" }
%"class.llvm::SmallVectorTemplateCommon.114" = type { %"class.llvm::SmallVectorBase.75" }
%"struct.llvm::SmallVectorStorage.115" = type { [320 x i8] }
%"class.llvm::iterator_range" = type { ptr, ptr }

@_ZTVN4llvm18raw_string_ostreamE = external unnamed_addr constant { [15 x ptr] }, align 8
@_ZTVN4llvm11raw_ostreamE = external unnamed_addr constant { [15 x ptr] }, align 8

; Function Attrs: mustprogress nounwind uwtable
define linkonce_odr hidden void @_ZN4llvm11raw_ostream5flushEv(ptr noundef nonnull align 8 dereferenceable(48) %0) #0 comdat align 2 {
  %2 = alloca ptr, align 8
  store ptr %0, ptr %2, align 8
  %3 = load ptr, ptr %2, align 8
  %4 = getelementptr inbounds nuw %"class.llvm::raw_ostream", ptr %3, i32 0, i32 4
  %5 = load ptr, ptr %4, align 8
  %6 = getelementptr inbounds nuw %"class.llvm::raw_ostream", ptr %3, i32 0, i32 2
  %7 = load ptr, ptr %6, align 8
  %8 = icmp ne ptr %5, %7
  br i1 %8, label %9, label %10

9:                                                ; preds = %1
  call void @_ZN4llvm11raw_ostream14flush_nonemptyEv(ptr noundef nonnull align 8 dereferenceable(48) %3)
  br label %10

10:                                               ; preds = %9, %1
  ret void
}

; Function Attrs: mustprogress nounwind uwtable
define linkonce_odr hidden void @_ZN4llvm14iterator_rangeIPKNS_30DiagnosticInfoOptimizationBase8ArgumentEEC2ES4_S4_(ptr noundef nonnull align 8 dereferenceable(16) %0, ptr noundef %1, ptr noundef %2) unnamed_addr #0 comdat align 2 {
  %4 = alloca ptr, align 8
  %5 = alloca ptr, align 8
  %6 = alloca ptr, align 8
  store ptr %0, ptr %4, align 8
  store ptr %1, ptr %5, align 8
  store ptr %2, ptr %6, align 8
  %7 = load ptr, ptr %4, align 8
  %8 = getelementptr inbounds nuw %"class.llvm::iterator_range", ptr %7, i32 0, i32 0
  %9 = load ptr, ptr %5, align 8
  store ptr %9, ptr %8, align 8
  %10 = getelementptr inbounds nuw %"class.llvm::iterator_range", ptr %7, i32 0, i32 1
  %11 = load ptr, ptr %6, align 8
  store ptr %11, ptr %10, align 8
  ret void
}

; Function Attrs: mustprogress nounwind uwtable
define linkonce_odr hidden void @_ZN4llvm11raw_ostream13SetUnbufferedEv(ptr noundef nonnull align 8 dereferenceable(48) %0) #0 comdat align 2 {
  %2 = alloca ptr, align 8
  store ptr %0, ptr %2, align 8
  %3 = load ptr, ptr %2, align 8
  call void @_ZN4llvm11raw_ostream5flushEv(ptr noundef nonnull align 8 dereferenceable(48) %3)
  call void @_ZN4llvm11raw_ostream16SetBufferAndModeEPcmNS0_10BufferKindE(ptr noundef nonnull align 8 dereferenceable(48) %3, ptr noundef null, i64 noundef 0, i32 noundef 0)
  ret void
}

; Function Attrs: mustprogress nounwind uwtable
define linkonce_odr hidden void @_ZN4llvm11raw_ostreamC2EbNS0_11OStreamKindE(ptr noundef nonnull align 8 dereferenceable(48) %0, i1 noundef zeroext %1, i32 noundef %2) unnamed_addr #0 comdat align 2 {
  %4 = alloca ptr, align 8
  %5 = alloca i8, align 1
  %6 = alloca i32, align 4
  store ptr %0, ptr %4, align 8
  %7 = zext i1 %1 to i8
  store i8 %7, ptr %5, align 1
  store i32 %2, ptr %6, align 4
  %8 = load ptr, ptr %4, align 8
  store ptr getelementptr inbounds inrange(-16, 104) ({ [15 x ptr] }, ptr @_ZTVN4llvm11raw_ostreamE, i32 0, i32 0, i32 2), ptr %8, align 8
  %9 = getelementptr inbounds nuw %"class.llvm::raw_ostream", ptr %8, i32 0, i32 1
  %10 = load i32, ptr %6, align 4
  store i32 %10, ptr %9, align 8
  %11 = getelementptr inbounds nuw %"class.llvm::raw_ostream", ptr %8, i32 0, i32 5
  store i8 0, ptr %11, align 8
  %12 = getelementptr inbounds nuw %"class.llvm::raw_ostream", ptr %8, i32 0, i32 6
  %13 = load i8, ptr %5, align 1
  %14 = trunc i8 %13 to i1
  %15 = select i1 %14, i32 0, i32 1
  store i32 %15, ptr %12, align 4
  %16 = getelementptr inbounds nuw %"class.llvm::raw_ostream", ptr %8, i32 0, i32 4
  store ptr null, ptr %16, align 8
  %17 = getelementptr inbounds nuw %"class.llvm::raw_ostream", ptr %8, i32 0, i32 3
  store ptr null, ptr %17, align 8
  %18 = getelementptr inbounds nuw %"class.llvm::raw_ostream", ptr %8, i32 0, i32 2
  store ptr null, ptr %18, align 8
  ret void
}

; Function Attrs: mustprogress nounwind uwtable
define linkonce_odr hidden void @_ZN4llvm18raw_string_ostreamD2Ev(ptr noundef nonnull align 8 dereferenceable(56) %0) unnamed_addr #0 comdat align 2 {
  %2 = alloca ptr, align 8
  store ptr %0, ptr %2, align 8
  %3 = load ptr, ptr %2, align 8
  call void @_ZN4llvm11raw_ostreamD2Ev(ptr noundef nonnull align 8 dereferenceable(48) %3) #9
  ret void
}

; Function Attrs: mustprogress nounwind uwtable
define linkonce_odr hidden noundef nonnull align 8 dereferenceable(48) ptr @_ZN4llvm11raw_ostreamlsERKNSt7__cxx1112basic_stringIcSt11char_traitsIcESaIcEEE(ptr noundef nonnull align 8 dereferenceable(48) %0, ptr noundef nonnull align 8 dereferenceable(32) %1) #0 comdat align 2 {
  %3 = alloca ptr, align 8
  %4 = alloca ptr, align 8
  store ptr %0, ptr %3, align 8
  store ptr %1, ptr %4, align 8
  %5 = load ptr, ptr %3, align 8
  %6 = load ptr, ptr %4, align 8
  %7 = call noundef ptr @_ZNKSt7__cxx1112basic_stringIcSt11char_traitsIcESaIcEE4dataEv(ptr noundef nonnull align 8 dereferenceable(32) %6) #9
  %8 = load ptr, ptr %4, align 8
  %9 = call noundef i64 @_ZNKSt7__cxx1112basic_stringIcSt11char_traitsIcESaIcEE6lengthEv(ptr noundef nonnull align 8 dereferenceable(32) %8) #9
  %10 = call noundef nonnull align 8 dereferenceable(48) ptr @_ZN4llvm11raw_ostream5writeEPKcm(ptr noundef nonnull align 8 dereferenceable(48) %5, ptr noundef %7, i64 noundef %9)
  ret ptr %10
}

; Function Attrs: mustprogress nounwind uwtable
define linkonce_odr hidden noundef ptr @_ZNK4llvm14iterator_rangeIPKNS_30DiagnosticInfoOptimizationBase8ArgumentEE3endEv(ptr noundef nonnull align 8 dereferenceable(16) %0) #0 comdat align 2 {
  %2 = alloca ptr, align 8
  store ptr %0, ptr %2, align 8
  %3 = load ptr, ptr %2, align 8
  %4 = getelementptr inbounds nuw %"class.llvm::iterator_range", ptr %3, i32 0, i32 1
  %5 = load ptr, ptr %4, align 8
  ret ptr %5
}

; Function Attrs: mustprogress nounwind uwtable
define linkonce_odr hidden noundef ptr @_ZNK4llvm14iterator_rangeIPKNS_30DiagnosticInfoOptimizationBase8ArgumentEE5beginEv(ptr noundef nonnull align 8 dereferenceable(16) %0) #0 comdat align 2 {
  %2 = alloca ptr, align 8
  store ptr %0, ptr %2, align 8
  %3 = load ptr, ptr %2, align 8
  %4 = getelementptr inbounds nuw %"class.llvm::iterator_range", ptr %3, i32 0, i32 0
  %5 = load ptr, ptr %4, align 8
  ret ptr %5
}

; Function Attrs: mustprogress nounwind uwtable
define linkonce_odr { ptr, ptr } @_ZN4llvm10make_rangeIPKNS_30DiagnosticInfoOptimizationBase8ArgumentEEENS_14iterator_rangeIT_EES6_S6_(ptr noundef %0, ptr noundef %1) #0 comdat {
  %3 = alloca %"class.llvm::iterator_range", align 8
  %4 = alloca ptr, align 8
  %5 = alloca ptr, align 8
  store ptr %0, ptr %4, align 8
  store ptr %1, ptr %5, align 8
  %6 = load ptr, ptr %4, align 8
  %7 = load ptr, ptr %5, align 8
  call void @_ZN4llvm14iterator_rangeIPKNS_30DiagnosticInfoOptimizationBase8ArgumentEEC2ES4_S4_(ptr noundef nonnull align 8 dereferenceable(16) %3, ptr noundef %6, ptr noundef %7)
  %8 = load { ptr, ptr }, ptr %3, align 8
  ret { ptr, ptr } %8
}

; Function Attrs: mustprogress nounwind uwtable
define linkonce_odr hidden noundef ptr @_ZNK4llvm25SmallVectorTemplateCommonINS_30DiagnosticInfoOptimizationBase8ArgumentEvE3endEv(ptr noundef nonnull align 8 dereferenceable(16) %0) #0 comdat align 2 {
  %2 = alloca ptr, align 8
  store ptr %0, ptr %2, align 8
  %3 = load ptr, ptr %2, align 8
  %4 = call noundef ptr @_ZNK4llvm25SmallVectorTemplateCommonINS_30DiagnosticInfoOptimizationBase8ArgumentEvE5beginEv(ptr noundef nonnull align 8 dereferenceable(16) %3)
  %5 = call noundef i64 @_ZNK4llvm15SmallVectorBaseIjE4sizeEv(ptr noundef nonnull align 8 dereferenceable(16) %3)
  %6 = getelementptr inbounds %"struct.llvm::DiagnosticInfoOptimizationBase::Argument", ptr %4, i64 %5
  ret ptr %6
}

; Function Attrs: mustprogress nounwind uwtable
define linkonce_odr hidden noundef ptr @_ZNK4llvm25SmallVectorTemplateCommonINS_30DiagnosticInfoOptimizationBase8ArgumentEvE5beginEv(ptr noundef nonnull align 8 dereferenceable(16) %0) #0 comdat align 2 {
  %2 = alloca ptr, align 8
  store ptr %0, ptr %2, align 8
  %3 = load ptr, ptr %2, align 8
  %4 = getelementptr inbounds nuw %"class.llvm::SmallVectorBase.75", ptr %3, i32 0, i32 0
  %5 = load ptr, ptr %4, align 8
  ret ptr %5
}

; Function Attrs: mustprogress nounwind uwtable
define linkonce_odr hidden void @_ZN4llvm18raw_string_ostreamC2ERNSt7__cxx1112basic_stringIcSt11char_traitsIcESaIcEEE(ptr noundef nonnull align 8 dereferenceable(56) %0, ptr noundef nonnull align 8 dereferenceable(32) %1) unnamed_addr #0 comdat align 2 {
  %3 = alloca ptr, align 8
  %4 = alloca ptr, align 8
  store ptr %0, ptr %3, align 8
  store ptr %1, ptr %4, align 8
  %5 = load ptr, ptr %3, align 8
  call void @_ZN4llvm11raw_ostreamC2EbNS0_11OStreamKindE(ptr noundef nonnull align 8 dereferenceable(48) %5, i1 noundef zeroext false, i32 noundef 0)
  store ptr getelementptr inbounds inrange(-16, 104) ({ [15 x ptr] }, ptr @_ZTVN4llvm18raw_string_ostreamE, i32 0, i32 0, i32 2), ptr %5, align 8
  %6 = getelementptr inbounds nuw %"class.llvm::raw_string_ostream", ptr %5, i32 0, i32 1
  %7 = load ptr, ptr %4, align 8
  store ptr %7, ptr %6, align 8
  call void @_ZN4llvm11raw_ostream13SetUnbufferedEv(ptr noundef nonnull align 8 dereferenceable(48) %5)
  ret void
}

; Function Attrs: mustprogress nounwind uwtable
define dso_local void @_ZNK4llvm30DiagnosticInfoOptimizationBase6getMsgB5cxx11Ev(ptr dead_on_unwind noalias writable sret(%"class.std::__cxx11::basic_string") align 8 %0, ptr noundef nonnull align 8 dereferenceable(424) %1) #0 align 2 {
  %3 = alloca ptr, align 8
  %4 = alloca ptr, align 8
  %5 = alloca i1, align 1
  %6 = alloca %"class.llvm::raw_string_ostream", align 8
  %7 = alloca ptr, align 8
  %8 = alloca %"class.llvm::iterator_range", align 8
  %9 = alloca ptr, align 8
  %10 = alloca ptr, align 8
  %11 = alloca ptr, align 8
  store ptr %0, ptr %3, align 8
  store ptr %1, ptr %4, align 8
  %12 = load ptr, ptr %4, align 8
  store i1 false, ptr %5, align 1
  call void @_ZNSt7__cxx1112basic_stringIcSt11char_traitsIcESaIcEEC1Ev(ptr noundef nonnull align 8 dereferenceable(32) %0) #9
  call void @_ZN4llvm18raw_string_ostreamC2ERNSt7__cxx1112basic_stringIcSt11char_traitsIcESaIcEEE(ptr noundef nonnull align 8 dereferenceable(56) %6, ptr noundef nonnull align 8 dereferenceable(32) %0)
  %13 = getelementptr inbounds nuw %"class.llvm::DiagnosticInfoOptimizationBase", ptr %12, i32 0, i32 4
  %14 = call noundef ptr @_ZNK4llvm25SmallVectorTemplateCommonINS_30DiagnosticInfoOptimizationBase8ArgumentEvE5beginEv(ptr noundef nonnull align 8 dereferenceable(16) %13)
  %15 = getelementptr inbounds nuw %"class.llvm::DiagnosticInfoOptimizationBase", ptr %12, i32 0, i32 6
  %16 = load i32, ptr %15, align 4
  %17 = icmp eq i32 %16, -1
  br i1 %17, label %18, label %21

18:                                               ; preds = %2
  %19 = getelementptr inbounds nuw %"class.llvm::DiagnosticInfoOptimizationBase", ptr %12, i32 0, i32 4
  %20 = call noundef ptr @_ZNK4llvm25SmallVectorTemplateCommonINS_30DiagnosticInfoOptimizationBase8ArgumentEvE3endEv(ptr noundef nonnull align 8 dereferenceable(16) %19)
  br label %28

21:                                               ; preds = %2
  %22 = getelementptr inbounds nuw %"class.llvm::DiagnosticInfoOptimizationBase", ptr %12, i32 0, i32 4
  %23 = call noundef ptr @_ZNK4llvm25SmallVectorTemplateCommonINS_30DiagnosticInfoOptimizationBase8ArgumentEvE5beginEv(ptr noundef nonnull align 8 dereferenceable(16) %22)
  %24 = getelementptr inbounds nuw %"class.llvm::DiagnosticInfoOptimizationBase", ptr %12, i32 0, i32 6
  %25 = load i32, ptr %24, align 4
  %26 = sext i32 %25 to i64
  %27 = getelementptr inbounds %"struct.llvm::DiagnosticInfoOptimizationBase::Argument", ptr %23, i64 %26
  br label %28

28:                                               ; preds = %21, %18
  %29 = phi ptr [ %20, %18 ], [ %27, %21 ]
  %30 = call { ptr, ptr } @_ZN4llvm10make_rangeIPKNS_30DiagnosticInfoOptimizationBase8ArgumentEEENS_14iterator_rangeIT_EES6_S6_(ptr noundef %14, ptr noundef %29)
  %31 = getelementptr inbounds nuw { ptr, ptr }, ptr %8, i32 0, i32 0
  %32 = extractvalue { ptr, ptr } %30, 0
  store ptr %32, ptr %31, align 8
  %33 = getelementptr inbounds nuw { ptr, ptr }, ptr %8, i32 0, i32 1
  %34 = extractvalue { ptr, ptr } %30, 1
  store ptr %34, ptr %33, align 8
  store ptr %8, ptr %7, align 8
  %35 = load ptr, ptr %7, align 8
  %36 = call noundef ptr @_ZNK4llvm14iterator_rangeIPKNS_30DiagnosticInfoOptimizationBase8ArgumentEE5beginEv(ptr noundef nonnull align 8 dereferenceable(16) %35)
  store ptr %36, ptr %9, align 8
  %37 = load ptr, ptr %7, align 8
  %38 = call noundef ptr @_ZNK4llvm14iterator_rangeIPKNS_30DiagnosticInfoOptimizationBase8ArgumentEE3endEv(ptr noundef nonnull align 8 dereferenceable(16) %37)
  store ptr %38, ptr %10, align 8
  br label %39

39:                                               ; preds = %48, %28
  %40 = load ptr, ptr %9, align 8
  %41 = load ptr, ptr %10, align 8
  %42 = icmp ne ptr %40, %41
  br i1 %42, label %43, label %51

43:                                               ; preds = %39
  %44 = load ptr, ptr %9, align 8
  store ptr %44, ptr %11, align 8
  %45 = load ptr, ptr %11, align 8
  %46 = getelementptr inbounds nuw %"struct.llvm::DiagnosticInfoOptimizationBase::Argument", ptr %45, i32 0, i32 1
  %47 = call noundef nonnull align 8 dereferenceable(48) ptr @_ZN4llvm11raw_ostreamlsERKNSt7__cxx1112basic_stringIcSt11char_traitsIcESaIcEEE(ptr noundef nonnull align 8 dereferenceable(48) %6, ptr noundef nonnull align 8 dereferenceable(32) %46)
  br label %48

48:                                               ; preds = %43
  %49 = load ptr, ptr %9, align 8
  %50 = getelementptr inbounds %"struct.llvm::DiagnosticInfoOptimizationBase::Argument", ptr %49, i32 1
  store ptr %50, ptr %9, align 8
  br label %39

51:                                               ; preds = %39
  store i1 true, ptr %5, align 1
  call void @_ZN4llvm18raw_string_ostreamD2Ev(ptr noundef nonnull align 8 dereferenceable(56) %6) #9
  %52 = load i1, ptr %5, align 1
  br i1 %52, label %54, label %53

53:                                               ; preds = %51
  call void @_ZNSt7__cxx1112basic_stringIcSt11char_traitsIcESaIcEED1Ev(ptr noundef nonnull align 8 dereferenceable(32) %0) #9
  br label %54

54:                                               ; preds = %53, %51
  ret void
}