; Function Attrs: mustprogress nounwind uwtable
define dso_local void @_ZNK4llvm30DiagnosticInfoOptimizationBase6getMsgB5cxx11Ev(ptr dead_on_unwind noalias nonnull writable sret(%"class.std::__cxx11::basic_string") align 8 %0, ptr noundef nonnull align 8 dereferenceable(424) %1) local_unnamed_addr #1 align 2 {
  %3 = alloca %"class.llvm::raw_string_ostream", align 8
  tail call void @_ZNSt7__cxx1112basic_stringIcSt11char_traitsIcESaIcEEC1Ev(ptr noundef nonnull align 8 dereferenceable(32) %0) #16
  %4 = getelementptr inbounds nuw i8, ptr %3, i64 8
  store i32 0, ptr %4, align 8
  %5 = getelementptr inbounds nuw i8, ptr %3, i64 40
  store i8 0, ptr %5, align 8
  %6 = getelementptr inbounds nuw i8, ptr %3, i64 44
  store i32 1, ptr %6, align 4
  %7 = getelementptr inbounds nuw i8, ptr %3, i64 16
  call void @llvm.memset.p0.i64(ptr noundef nonnull align 8 dereferenceable(24) %7, i8 0, i64 24, i1 false)
  store ptr getelementptr inbounds nuw inrange(-16, 104) (i8, ptr @_ZTVN4llvm18raw_string_ostreamE, i64 16), ptr %3, align 8
  %8 = getelementptr inbounds nuw i8, ptr %3, i64 48
  store ptr %0, ptr %8, align 8
  call void @_ZN4llvm11raw_ostream16SetBufferAndModeEPcmNS0_10BufferKindE(ptr noundef nonnull align 8 dereferenceable(56) %3, ptr noundef null, i64 noundef 0, i32 noundef 0) #16
  %9 = getelementptr inbounds nuw i8, ptr %1, i64 80
  %10 = load ptr, ptr %9, align 8
  %11 = getelementptr inbounds nuw i8, ptr %1, i64 420
  %12 = load i32, ptr %11, align 4
  %13 = icmp eq i32 %12, -1
  br i1 %13, label %14, label %16

14:                                               ; preds = %2
  %15 = call noundef i64 @_ZNK4llvm15SmallVectorBaseIjE4sizeEv(ptr noundef nonnull align 8 dereferenceable(16) %9) #16
  br label %18

16:                                               ; preds = %2
  %17 = sext i32 %12 to i64
  br label %18

18:                                               ; preds = %16, %14
  %.pn = phi i64 [ %15, %14 ], [ %17, %16 ]
  %19 = getelementptr inbounds %"struct.llvm::DiagnosticInfoOptimizationBase::Argument", ptr %10, i64 %.pn
  %.not9 = icmp eq i64 %.pn, 0
  br i1 %.not9, label %._crit_edge, label %.lr.ph

.lr.ph:                                           ; preds = %18, %.lr.ph
  %.010 = phi ptr [ %24, %.lr.ph ], [ %10, %18 ]
  %20 = getelementptr inbounds nuw i8, ptr %.010, i64 32
  %21 = call noundef ptr @_ZNKSt7__cxx1112basic_stringIcSt11char_traitsIcESaIcEE4dataEv(ptr noundef nonnull align 8 dereferenceable(32) %20) #16
  %22 = call noundef i64 @_ZNKSt7__cxx1112basic_stringIcSt11char_traitsIcESaIcEE6lengthEv(ptr noundef nonnull align 8 dereferenceable(32) %20) #16
  %23 = call noundef nonnull align 8 dereferenceable(48) ptr @_ZN4llvm11raw_ostream5writeEPKcm(ptr noundef nonnull align 8 dereferenceable(48) %3, ptr noundef %21, i64 noundef %22) #16
  %24 = getelementptr inbounds nuw i8, ptr %.010, i64 80
  %.not = icmp eq ptr %24, %19
  br i1 %.not, label %._crit_edge, label %.lr.ph

._crit_edge:                                      ; preds = %.lr.ph, %18
  call void @_ZN4llvm11raw_ostreamD2Ev(ptr noundef nonnull align 8 dereferenceable(56) %3) #16
  ret void
}